target datalayout = "e-m:e-p270:32:32-p271:32:32-p272:64:64-i64:64-i128:128-f80:128-n8:16:32:64-S128"
target triple = "x86_64-pc-linux-gnu"

%struct.tls_buffer_st = type { ptr, i64, i64, i64, i64, i32, i32 }
%struct.tls_rl_record_st = type { i32, i32, i64, i64, i64, ptr, ptr, ptr, i16, [8 x i8] }
%struct.ossl_record_layer_st = type { ptr, ptr, i32, i32, i32, i32, i32, ptr, i16, ptr, ptr, ptr, i64, i32, [33 x %struct.tls_buffer_st], i64, i64, %struct.tls_buffer_st, [32 x %struct.tls_rl_record_st], i64, i64, i64, i32, ptr, i64, [8 x i8], i32, i32, i64, i32, ptr, ptr, i64, ptr, ptr, i32, i32, i32, i64, i64, i64, [64 x i8], i32, i32, i32, ptr, ptr, i32, i32, i64, ptr, ptr, %struct.dtls_bitmap_st, %struct.dtls_bitmap_st, i32, ptr, ptr, ptr, ptr, ptr, i64, ptr }
%struct.dtls_bitmap_st = type { i64, [8 x i8] }

; Function Attrs: nounwind uwtable
define i32 @tls_set1_bio(ptr noundef %0, ptr noundef %1) #0 {
  %3 = alloca i32, align 4
  %4 = alloca ptr, align 8
  %5 = alloca ptr, align 8
  store ptr %0, ptr %4, align 8, !tbaa !16
  store ptr %1, ptr %5, align 8, !tbaa !67
  %6 = load ptr, ptr %5, align 8, !tbaa !67
  %7 = icmp ne ptr %6, null
  br i1 %7, label %8, label %13

8:                                                ; preds = %2
  %9 = load ptr, ptr %5, align 8, !tbaa !67
  %10 = call i32 @BIO_up_ref(ptr noundef %9)
  %11 = icmp ne i32 %10, 0
  br i1 %11, label %13, label %12

12:                                               ; preds = %8
  store i32 0, ptr %3, align 4
  br label %21

13:                                               ; preds = %8, %2
  %14 = load ptr, ptr %4, align 8, !tbaa !16
  %15 = getelementptr inbounds nuw %struct.ossl_record_layer_st, ptr %14, i32 0, i32 10
  %16 = load ptr, ptr %15, align 8, !tbaa !66
  %17 = call i32 @BIO_free(ptr noundef %16)
  %18 = load ptr, ptr %5, align 8, !tbaa !67
  %19 = load ptr, ptr %4, align 8, !tbaa !16
  %20 = getelementptr inbounds nuw %struct.ossl_record_layer_st, ptr %19, i32 0, i32 10
  store ptr %18, ptr %20, align 8, !tbaa !66
  store i32 1, ptr %3, align 4
  br label %21

21:                                               ; preds = %13, %12
  %22 = load i32, ptr %3, align 4
  ret i32 %22
}