; Function Attrs: nounwind uwtable
define range(i32 0, 2) i32 @tls_set1_bio(ptr noundef captures(none) %0, ptr noundef %1) #0 {
  %.not = icmp eq ptr %1, null
  br i1 %.not, label %5, label %3

3:                                                ; preds = %2
  %4 = tail call i32 @BIO_up_ref(ptr noundef nonnull %1) #13
  %.not6 = icmp eq i32 %4, 0
  br i1 %.not6, label %9, label %5

5:                                                ; preds = %3, %2
  %6 = getelementptr inbounds nuw i8, ptr %0, i64 64
  %7 = load ptr, ptr %6, align 8, !tbaa !52
  %8 = tail call i32 @BIO_free(ptr noundef %7) #13
  store ptr %1, ptr %6, align 8, !tbaa !52
  br label %9

9:                                                ; preds = %3, %5
  %.0 = phi i32 [ 1, %5 ], [ 0, %3 ]
  ret i32 %.0
}